Certificate:
    Data:
        Version: 3 (0x2)
        Serial Number: 8437202980044439949 (0x7516f7687b6a818d)
    Signature Algorithm: sha256WithRSAEncryption
        Issuer: C=CA, ST=Quebec, L=Montreal, O=Veronneau Techno. Conseil inc, CN=Veronneau Techno. Conseil inc Authority Certificate
        Validity
            Not Before: Aug 29 00:40:51 2020 GMT
            Not After : May 13 20:40:51 2030 GMT
        Subject: C=CA, ST=Quebec, L=Montreal, O=Veronneau Techno. Conseil inc, CN=localhost
        Subject Public Key Info:
            Public Key Algorithm: rsaEncryption
                Public-Key: (2048 bit)
                Modulus:
                    00:e2:b7:d5:1f:a7:55:5c:13:86:97:82:d3:ed:b0:
                    26:b2:f7:73:fe:30:d9:7b:db:1a:e8:54:a8:0e:41:
                    c0:0f:ce:12:17:f1:ad:88:ca:f9:46:e8:a5:de:1f:
                    74:46:ca:91:22:e0:8b:f4:3f:89:09:88:3f:b9:c4:
                    49:c1:4b:83:0d:78:fa:f2:32:e4:7a:5b:18:a5:73:
                    86:45:f4:20:8b:b6:1d:ea:f4:e3:b8:a2:f7:de:0d:
                    41:96:99:71:5a:3b:6b:71:b8:18:1d:4d:2d:f4:2c:
                    f4:58:45:d5:07:e0:71:fc:87:c8:2b:28:25:ce:c2:
                    fe:45:cf:6e:fc:75:d2:ab:a9:74:cd:c9:cc:34:af:
                    79:92:c2:95:74:aa:38:c9:af:7f:ed:ef:d4:77:91:
                    d0:5b:8e:ed:3a:e0:1f:11:ac:7c:2e:d3:c3:14:12:
                    0e:77:3a:61:97:73:2e:c5:80:ae:66:9d:e7:5f:c7:
                    75:ca:bc:37:0b:03:18:39:48:94:4a:0a:a2:5e:bd:
                    90:7c:5f:77:1d:55:3f:53:93:22:ec:3e:1e:70:b1:
                    76:2a:f9:34:3f:24:59:72:a8:f7:d1:ce:d2:62:01:
                    07:be:dc:b1:42:30:ab:e5:d5:8f:62:4b:42:0f:cc:
                    2a:00:83:c7:e2:2c:be:0b:c4:78:6a:40:d1:84:bc:
                    40:15
                Exponent: 65537 (0x10001)
        X509v3 extensions:
            X509v3 Subject Alternative Name: 
                IP Address:127.0.0.1
            X509v3 Authority Key Identifier: 
                keyid:0A:8F:31:B7:50:03:D7:9F:81:8B:E4:88:41:E5:6D:04:EF:E7:BC:C3

            X509v3 Subject Key Identifier: 
                12:E5:03:AB:BB:97:C3:74:B5:B7:9E:F0:5F:84:6E:A9:90:89:CA:2A
            Netscape Comment: 
                OpenSSL Generated Certificate
            X509v3 Basic Constraints: 
                CA:FALSE
    Signature Algorithm: sha256WithRSAEncryption
         4a:19:a6:e9:a0:9a:6a:a1:78:79:7b:82:a5:4c:c7:2f:82:00:
         c1:45:ce:c6:ba:0a:a0:a6:30:0c:be:d2:48:a6:6f:1d:0b:71:
         c5:19:1b:ce:95:c3:a7:08:2d:76:2e:9e:2a:b4:c6:35:6a:59:
         fc:cd:45:3a:4d:7c:6d:7e:67:58:7f:2f:80:f2:da:15:de:75:
         90:cb:72:42:86:14:93:29:f4:9b:c9:ba:59:b8:55:7c:b5:e4:
         47:08:ce:6a:5c:d5:b2:d3:8c:95:eb:59:58:da:5f:c3:7a:b9:
         27:cc:34:91:da:c5:0b:a4:b0:56:08:14:e0:4a:e2:ed:a9:06:
         7d:d4:10:2e:cc:8e:c3:e5:11:10:32:f7:36:f4:61:34:15:8d:
         4d:2d:17:f4:58:64:c2:02:ca:8b:57:e4:78:71:ac:89:f2:3a:
         15:9f:59:56:b5:a6:c5:eb:30:a9:d7:cc:71:bd:b5:c5:4b:90:
         88:15:f2:fb:36:1e:95:66:df:ad:54:eb:ad:3c:f2:cb:11:3e:
         02:39:1d:64:ae:34:1f:95:0f:98:9b:63:64:a2:db:d5:51:0c:
         e1:d4:19:05:04:43:ad:e1:65:e6:ca:4e:40:cd:71:09:c0:64:
         8c:31:33:03:1a:ea:85:0e:4e:75:6e:a9:26:13:b1:6a:7e:7f:
         6d:aa:cc:b5
-----BEGIN CERTIFICATE-----
MIIEFTCCAv2gAwIBAgIIdRb3aHtqgY0wDQYJKoZIhvcNAQELBQAwgZcxCzAJBgNV
BAYTAkNBMQ8wDQYDVQQIEwZRdWViZWMxETAPBgNVBAcTCE1vbnRyZWFsMSYwJAYD
VQQKEx1WZXJvbm5lYXUgVGVjaG5vLiBDb25zZWlsIGluYzE8MDoGA1UEAxMzVmVy
b25uZWF1IFRlY2huby4gQ29uc2VpbCBpbmMgQXV0aG9yaXR5IENlcnRpZmljYXRl
MB4XDTIwMDgyOTAwNDA1MVoXDTMwMDUxMzIwNDA1MVowbTELMAkGA1UEBhMCQ0Ex
DzANBgNVBAgTBlF1ZWJlYzERMA8GA1UEBxMITW9udHJlYWwxJjAkBgNVBAoTHVZl
cm9ubmVhdSBUZWNobm8uIENvbnNlaWwgaW5jMRIwEAYDVQQDEwlsb2NhbGhvc3Qw
ggEiMA0GCSqGSIb3DQEBAQUAA4IBDwAwggEKAoIBAQDit9Ufp1VcE4aXgtPtsCay
93P+MNl72xroVKgOQcAPzhIX8a2IyvlG6KXeH3RGypEi4Iv0P4kJiD+5xEnBS4MN
ePryMuR6Wxilc4ZF9CCLth3q9OO4ovfeDUGWmXFaO2txuBgdTS30LPRYRdUH4HH8
h8grKCXOwv5Fz278ddKrqXTNycw0r3mSwpV0qjjJr3/t79R3kdBbju064B8RrHwu
08MUEg53OmGXcy7FgK5mnedfx3XKvDcLAxg5SJRKCqJevZB8X3cdVT9TkyLsPh5w
sXYq+TQ/JFlyqPfRztJiAQe+3LFCMKvl1Y9iS0IPzCoAg8fiLL4LxHhqQNGEvEAV
AgMBAAGjgY0wgYowDwYDVR0RBAgwBocEfwAAATAfBgNVHSMEGDAWgBQKjzG3UAPX
n4GL5IhB5W0E7+e8wzAdBgNVHQ4EFgQUEuUDq7uXw3S1t57wX4RuqZCJyiowLAYJ
YIZIAYb4QgENBB8WHU9wZW5TU0wgR2VuZXJhdGVkIENlcnRpZmljYXRlMAkGA1Ud
EwQCMAAwDQYJKoZIhvcNAQELBQADggEBAEoZpumgmmqheHl7gqVMxy+CAMFFzsa6
CqCmMAy+0kimbx0LccUZG86Vw6cILXYuniq0xjVqWfzNRTpNfG1+Z1h/L4Dy2hXe
dZDLckKGFJMp9JvJulm4VXy15EcIzmpc1bLTjJXrWVjaX8N6uSfMNJHaxQuksFYI
FOBK4u2pBn3UEC7MjsPlERAy9zb0YTQVjU0tF/RYZMICyotX5HhxrInyOhWfWVa1
psXrMKnXzHG9tcVLkIgV8vs2HpVm361U66088ssRPgI5HWSuNB+VD5ibY2Si29VR
DOHUGQUEQ63hZebKTkDNcQnAZIwxMwMa6oUOTnVuqSYTsWp+f22qzLU=
-----END CERTIFICATE-----
